target datalayout = "e-m:e-p270:32:32-p271:32:32-p272:64:64-i64:64-i128:128-f80:128-n8:16:32:64-S128"
target triple = "x86_64-unknown-linux-gnu"

%class.rational = type { %class.mpq }
%class.mpq = type { %class.mpz, %class.mpz }
%class.mpz = type { i32, i8, ptr }
%"class.lp::hnf_cutter" = type { ptr, ptr, ptr, %"class.lp::general_matrix", %class.vector.1, %class.vector.2, %class.ptr_vector, %class.vector.4, %class.rational, i8, %"class.lp::var_register" }
%"class.lp::general_matrix" = type { %"class.lp::permutation_matrix", %"class.lp::permutation_matrix", %class.vector.0 }
%"class.lp::permutation_matrix" = type { %class.vector, %class.vector }
%class.vector = type { ptr }
%class.vector.0 = type { ptr }
%class.vector.1 = type { ptr }
%class.vector.2 = type { ptr }
%class.ptr_vector = type { %class.vector.3 }
%class.vector.3 = type { ptr }
%class.vector.4 = type { ptr }
%"class.lp::var_register" = type { %class.vector.5, %"class.std::unordered_map", i32, i32 }
%class.vector.5 = type { ptr }
%"class.std::unordered_map" = type { %"class.std::_Hashtable" }
%"class.std::_Hashtable" = type { ptr, i64, %"struct.std::__detail::_Hash_node_base", i64, %"struct.std::__detail::_Prime_rehash_policy", ptr }
%"struct.std::__detail::_Hash_node_base" = type { ptr }
%"struct.std::__detail::_Prime_rehash_policy" = type { float, i64 }
%class.svector = type { %class.vector.8 }
%class.vector.8 = type { ptr }
%"class.lp::ext_var_info" = type { i32, i8, %"class.std::__cxx11::basic_string" }
%"class.std::__cxx11::basic_string" = type { %"struct.std::__cxx11::basic_string<char>::_Alloc_hider", i64, %union.anon }
%"struct.std::__cxx11::basic_string<char>::_Alloc_hider" = type { ptr }
%union.anon = type { i64, [8 x i8] }

; Function Attrs: mustprogress nounwind uwtable
define linkonce_odr hidden noundef i32 @_ZNK6vectorIN2lp12ext_var_infoELb1EjE4sizeEv(ptr noundef nonnull align 8 dereferenceable(8) %this) #4 comdat align 2 {
entry:
  %retval = alloca i32, align 4
  %this.addr = alloca ptr, align 8
  store ptr %this, ptr %this.addr, align 8
  %this1 = load ptr, ptr %this.addr, align 8
  %m_data = getelementptr inbounds %class.vector.5, ptr %this1, i32 0, i32 0
  %0 = load ptr, ptr %m_data, align 8
  %cmp = icmp eq ptr %0, null
  br i1 %cmp, label %if.then, label %if.end

if.then:                                          ; preds = %entry
  store i32 0, ptr %retval, align 4
  br label %return

if.end:                                           ; preds = %entry
  %m_data2 = getelementptr inbounds %class.vector.5, ptr %this1, i32 0, i32 0
  %1 = load ptr, ptr %m_data2, align 8
  %arrayidx = getelementptr inbounds i32, ptr %1, i64 -1
  %2 = load i32, ptr %arrayidx, align 4
  store i32 %2, ptr %retval, align 4
  br label %return

return:                                           ; preds = %if.end, %if.then
  %3 = load i32, ptr %retval, align 4
  ret i32 %3
}

; Function Attrs: mustprogress nounwind uwtable
define linkonce_odr hidden void @_ZN6vectorIjLb0EjEC2Ev(ptr noundef nonnull align 8 dereferenceable(8) %this) unnamed_addr #4 comdat align 2 {
entry:
  %this.addr = alloca ptr, align 8
  store ptr %this, ptr %this.addr, align 8
  %this1 = load ptr, ptr %this.addr, align 8
  %m_data = getelementptr inbounds %class.vector.8, ptr %this1, i32 0, i32 0
  store ptr null, ptr %m_data, align 8
  ret void
}

; Function Attrs: mustprogress uwtable
define linkonce_odr hidden noundef nonnull align 8 dereferenceable(8) ptr @_ZN6vectorIjLb0EjE9push_backEOj(ptr noundef nonnull align 8 dereferenceable(8) %this, ptr noundef nonnull align 4 dereferenceable(4) %elem) #5 comdat align 2 {
entry:
  %this.addr = alloca ptr, align 8
  %elem.addr = alloca ptr, align 8
  store ptr %this, ptr %this.addr, align 8
  store ptr %elem, ptr %elem.addr, align 8
  %this1 = load ptr, ptr %this.addr, align 8
  %m_data = getelementptr inbounds %class.vector.8, ptr %this1, i32 0, i32 0
  %0 = load ptr, ptr %m_data, align 8
  %cmp = icmp eq ptr %0, null
  br i1 %cmp, label %if.then, label %lor.lhs.false

lor.lhs.false:                                    ; preds = %entry
  %m_data2 = getelementptr inbounds %class.vector.8, ptr %this1, i32 0, i32 0
  %1 = load ptr, ptr %m_data2, align 8
  %arrayidx = getelementptr inbounds i32, ptr %1, i64 -1
  %2 = load i32, ptr %arrayidx, align 4
  %m_data3 = getelementptr inbounds %class.vector.8, ptr %this1, i32 0, i32 0
  %3 = load ptr, ptr %m_data3, align 8
  %arrayidx4 = getelementptr inbounds i32, ptr %3, i64 -2
  %4 = load i32, ptr %arrayidx4, align 4
  %cmp5 = icmp eq i32 %2, %4
  br i1 %cmp5, label %if.then, label %if.end

if.then:                                          ; preds = %lor.lhs.false, %entry
  call void @_ZN6vectorIjLb0EjE13expand_vectorEv(ptr noundef nonnull align 8 dereferenceable(8) %this1)
  br label %if.end

if.end:                                           ; preds = %if.then, %lor.lhs.false
  %m_data6 = getelementptr inbounds %class.vector.8, ptr %this1, i32 0, i32 0
  %5 = load ptr, ptr %m_data6, align 8
  %m_data7 = getelementptr inbounds %class.vector.8, ptr %this1, i32 0, i32 0
  %6 = load ptr, ptr %m_data7, align 8
  %arrayidx8 = getelementptr inbounds i32, ptr %6, i64 -1
  %7 = load i32, ptr %arrayidx8, align 4
  %idx.ext = zext i32 %7 to i64
  %add.ptr = getelementptr inbounds i32, ptr %5, i64 %idx.ext
  %8 = load ptr, ptr %elem.addr, align 8
  %9 = load i32, ptr %8, align 4
  store i32 %9, ptr %add.ptr, align 4
  %m_data9 = getelementptr inbounds %class.vector.8, ptr %this1, i32 0, i32 0
  %10 = load ptr, ptr %m_data9, align 8
  %arrayidx10 = getelementptr inbounds i32, ptr %10, i64 -1
  %11 = load i32, ptr %arrayidx10, align 4
  %inc = add i32 %11, 1
  store i32 %inc, ptr %arrayidx10, align 4
  ret ptr %this1
}

; Function Attrs: mustprogress nounwind uwtable
define linkonce_odr hidden noundef i32 @_ZNK2lp12ext_var_info10external_jEv(ptr noundef nonnull align 8 dereferenceable(40) %this) #4 comdat align 2 {
entry:
  %this.addr = alloca ptr, align 8
  store ptr %this, ptr %this.addr, align 8
  %this1 = load ptr, ptr %this.addr, align 8
  %m_external_j = getelementptr inbounds %"class.lp::ext_var_info", ptr %this1, i32 0, i32 0
  %0 = load i32, ptr %m_external_j, align 8
  ret i32 %0
}

; Function Attrs: mustprogress nounwind uwtable
define linkonce_odr hidden noundef ptr @_ZNK6vectorIN2lp12ext_var_infoELb1EjE3endEv(ptr noundef nonnull align 8 dereferenceable(8) %this) #4 comdat align 2 {
entry:
  %this.addr = alloca ptr, align 8
  store ptr %this, ptr %this.addr, align 8
  %this1 = load ptr, ptr %this.addr, align 8
  %m_data = getelementptr inbounds %class.vector.5, ptr %this1, i32 0, i32 0
  %0 = load ptr, ptr %m_data, align 8
  %call = call noundef i32 @_ZNK6vectorIN2lp12ext_var_infoELb1EjE4sizeEv(ptr noundef nonnull align 8 dereferenceable(8) %this1)
  %idx.ext = zext i32 %call to i64
  %add.ptr = getelementptr inbounds %"class.lp::ext_var_info", ptr %0, i64 %idx.ext
  ret ptr %add.ptr
}

; Function Attrs: mustprogress nounwind uwtable
define linkonce_odr hidden noundef ptr @_ZNK6vectorIN2lp12ext_var_infoELb1EjE5beginEv(ptr noundef nonnull align 8 dereferenceable(8) %this) #4 comdat align 2 {
entry:
  %this.addr = alloca ptr, align 8
  store ptr %this, ptr %this.addr, align 8
  %this1 = load ptr, ptr %this.addr, align 8
  %m_data = getelementptr inbounds %class.vector.5, ptr %this1, i32 0, i32 0
  %0 = load ptr, ptr %m_data, align 8
  ret ptr %0
}

; Function Attrs: mustprogress nounwind uwtable
define linkonce_odr hidden void @_ZN7svectorIjjEC2Ev(ptr noundef nonnull align 8 dereferenceable(8) %this) unnamed_addr #4 comdat align 2 {
entry:
  %this.addr = alloca ptr, align 8
  store ptr %this, ptr %this.addr, align 8
  %this1 = load ptr, ptr %this.addr, align 8
  %0 = getelementptr inbounds i8, ptr %this1, i64 0
  call void @llvm.memset.p0.i64(ptr align 8 %0, i8 0, i64 8, i1 false)
  call void @_ZN6vectorIjLb0EjEC2Ev(ptr noundef nonnull align 8 dereferenceable(8) %this1) #3
  ret void
}

; Function Attrs: mustprogress uwtable
define linkonce_odr hidden void @_ZNK2lp12var_register4varsEv(ptr noalias sret(%class.svector) align 8 %agg.result, ptr noundef nonnull align 8 dereferenceable(72) %this) #5 comdat align 2 personality ptr @__gxx_personality_v0 {
entry:
  %result.ptr = alloca ptr, align 8
  %this.addr = alloca ptr, align 8
  %nrvo = alloca i1, align 1
  %__range2 = alloca ptr, align 8
  %__begin2 = alloca ptr, align 8
  %exn.slot = alloca ptr, align 8
  %ehselector.slot = alloca i32, align 4
  %__end2 = alloca ptr, align 8
  %p = alloca ptr, align 8
  %ref.tmp = alloca i32, align 4
  store ptr %agg.result, ptr %result.ptr, align 8
  store ptr %this, ptr %this.addr, align 8
  %this1 = load ptr, ptr %this.addr, align 8
  store i1 false, ptr %nrvo, align 1
  call void @_ZN7svectorIjjEC2Ev(ptr noundef nonnull align 8 dereferenceable(8) %agg.result)
  %m_local_to_external = getelementptr inbounds %"class.lp::var_register", ptr %this1, i32 0, i32 0
  store ptr %m_local_to_external, ptr %__range2, align 8
  %0 = load ptr, ptr %__range2, align 8
  %call = invoke noundef ptr @_ZNK6vectorIN2lp12ext_var_infoELb1EjE5beginEv(ptr noundef nonnull align 8 dereferenceable(8) %0)
          to label %invoke.cont unwind label %lpad

invoke.cont:                                      ; preds = %entry
  store ptr %call, ptr %__begin2, align 8
  %1 = load ptr, ptr %__range2, align 8
  %call3 = invoke noundef ptr @_ZNK6vectorIN2lp12ext_var_infoELb1EjE3endEv(ptr noundef nonnull align 8 dereferenceable(8) %1)
          to label %invoke.cont2 unwind label %lpad

invoke.cont2:                                     ; preds = %invoke.cont
  store ptr %call3, ptr %__end2, align 8
  br label %for.cond

for.cond:                                         ; preds = %for.inc, %invoke.cont2
  %2 = load ptr, ptr %__begin2, align 8
  %3 = load ptr, ptr %__end2, align 8
  %cmp = icmp ne ptr %2, %3
  br i1 %cmp, label %for.body, label %for.end

for.body:                                         ; preds = %for.cond
  %4 = load ptr, ptr %__begin2, align 8
  store ptr %4, ptr %p, align 8
  %5 = load ptr, ptr %p, align 8
  %call4 = call noundef i32 @_ZNK2lp12ext_var_info10external_jEv(ptr noundef nonnull align 8 dereferenceable(40) %5)
  store i32 %call4, ptr %ref.tmp, align 4
  %call6 = invoke noundef nonnull align 8 dereferenceable(8) ptr @_ZN6vectorIjLb0EjE9push_backEOj(ptr noundef nonnull align 8 dereferenceable(8) %agg.result, ptr noundef nonnull align 4 dereferenceable(4) %ref.tmp)
          to label %invoke.cont5 unwind label %lpad

invoke.cont5:                                     ; preds = %for.body
  br label %for.inc

for.inc:                                          ; preds = %invoke.cont5
  %6 = load ptr, ptr %__begin2, align 8
  %incdec.ptr = getelementptr inbounds %"class.lp::ext_var_info", ptr %6, i32 1
  store ptr %incdec.ptr, ptr %__begin2, align 8
  br label %for.cond

lpad:                                             ; preds = %for.body, %invoke.cont, %entry
  %7 = landingpad { ptr, i32 }
          cleanup
  %8 = extractvalue { ptr, i32 } %7, 0
  store ptr %8, ptr %exn.slot, align 8
  %9 = extractvalue { ptr, i32 } %7, 1
  store i32 %9, ptr %ehselector.slot, align 4
  call void @_ZN7svectorIjjED2Ev(ptr noundef nonnull align 8 dereferenceable(8) %agg.result) #3
  br label %eh.resume

for.end:                                          ; preds = %for.cond
  store i1 true, ptr %nrvo, align 1
  %nrvo.val = load i1, ptr %nrvo, align 1
  br i1 %nrvo.val, label %nrvo.skipdtor, label %nrvo.unused

nrvo.unused:                                      ; preds = %for.end
  call void @_ZN7svectorIjjED2Ev(ptr noundef nonnull align 8 dereferenceable(8) %agg.result) #3
  br label %nrvo.skipdtor

nrvo.skipdtor:                                    ; preds = %nrvo.unused, %for.end
  ret void

eh.resume:                                        ; preds = %lpad
  %exn = load ptr, ptr %exn.slot, align 8
  %sel = load i32, ptr %ehselector.slot, align 4
  %lpad.val = insertvalue { ptr, i32 } poison, ptr %exn, 0
  %lpad.val7 = insertvalue { ptr, i32 } %lpad.val, i32 %sel, 1
  resume { ptr, i32 } %lpad.val7
}

; Function Attrs: mustprogress nounwind uwtable
define linkonce_odr hidden noundef i32 @_ZNK6vectorIPKN2lp8lar_termELb1EjE4sizeEv(ptr noundef nonnull align 8 dereferenceable(8) %this) #4 comdat align 2 {
entry:
  %retval = alloca i32, align 4
  %this.addr = alloca ptr, align 8
  store ptr %this, ptr %this.addr, align 8
  %this1 = load ptr, ptr %this.addr, align 8
  %m_data = getelementptr inbounds %class.vector.1, ptr %this1, i32 0, i32 0
  %0 = load ptr, ptr %m_data, align 8
  %cmp = icmp eq ptr %0, null
  br i1 %cmp, label %if.then, label %if.end

if.then:                                          ; preds = %entry
  store i32 0, ptr %retval, align 4
  br label %return

if.end:                                           ; preds = %entry
  %m_data2 = getelementptr inbounds %class.vector.1, ptr %this1, i32 0, i32 0
  %1 = load ptr, ptr %m_data2, align 8
  %arrayidx = getelementptr inbounds i32, ptr %1, i64 -1
  %2 = load i32, ptr %arrayidx, align 4
  store i32 %2, ptr %retval, align 4
  br label %return

return:                                           ; preds = %if.end, %if.then
  %3 = load i32, ptr %retval, align 4
  ret i32 %3
}

; Function Attrs: mustprogress nounwind uwtable
define linkonce_odr hidden noundef i32 @_ZNK6vectorIjLb0EjE4sizeEv(ptr noundef nonnull align 8 dereferenceable(8) %this) #4 comdat align 2 {
entry:
  %retval = alloca i32, align 4
  %this.addr = alloca ptr, align 8
  store ptr %this, ptr %this.addr, align 8
  %this1 = load ptr, ptr %this.addr, align 8
  %m_data = getelementptr inbounds %class.vector.8, ptr %this1, i32 0, i32 0
  %0 = load ptr, ptr %m_data, align 8
  %cmp = icmp eq ptr %0, null
  br i1 %cmp, label %if.then, label %if.end

if.then:                                          ; preds = %entry
  store i32 0, ptr %retval, align 4
  br label %return

if.end:                                           ; preds = %entry
  %m_data2 = getelementptr inbounds %class.vector.8, ptr %this1, i32 0, i32 0
  %1 = load ptr, ptr %m_data2, align 8
  %arrayidx = getelementptr inbounds i32, ptr %1, i64 -1
  %2 = load i32, ptr %arrayidx, align 4
  store i32 %2, ptr %retval, align 4
  br label %return

return:                                           ; preds = %if.end, %if.then
  %3 = load i32, ptr %retval, align 4
  ret i32 %3
}

; Function Attrs: mustprogress uwtable
define hidden void @_ZNK2lp10hnf_cutter4varsEv(ptr noalias sret(%class.svector) align 8 %agg.result, ptr noundef nonnull align 8 dereferenceable(208) %this) #5 align 2 {
entry:
  %result.ptr = alloca ptr, align 8
  %this.addr = alloca ptr, align 8
  store ptr %agg.result, ptr %result.ptr, align 8
  store ptr %this, ptr %this.addr, align 8
  %this1 = load ptr, ptr %this.addr, align 8
  %m_var_register = getelementptr inbounds %"class.lp::hnf_cutter", ptr %this1, i32 0, i32 10
  call void @_ZNK2lp12var_register4varsEv(ptr sret(%class.svector) align 8 %agg.result, ptr noundef nonnull align 8 dereferenceable(72) %m_var_register)
  ret void
}

; Function Attrs: mustprogress uwtable
define linkonce_odr hidden noundef i32 @_ZNK2lp10hnf_cutter11terms_countEv(ptr noundef nonnull align 8 dereferenceable(208) %this) #5 comdat align 2 {
entry:
  %this.addr = alloca ptr, align 8
  store ptr %this, ptr %this.addr, align 8
  %this1 = load ptr, ptr %this.addr, align 8
  %m_terms = getelementptr inbounds %"class.lp::hnf_cutter", ptr %this1, i32 0, i32 4
  %call = call noundef i32 @_ZNK6vectorIPKN2lp8lar_termELb1EjE4sizeEv(ptr noundef nonnull align 8 dereferenceable(8) %m_terms)
  ret i32 %call
}

; Function Attrs: mustprogress uwtable
define hidden void @_ZN2lp10hnf_cutter13init_matrix_AEv(ptr noundef nonnull align 8 dereferenceable(208) %this) #5 align 2 personality ptr @__gxx_personality_v0 {
entry:
  %this.addr = alloca ptr, align 8
  %ref.tmp = alloca %"class.lp::general_matrix", align 8
  %ref.tmp2 = alloca %class.svector, align 8
  %exn.slot = alloca ptr, align 8
  %ehselector.slot = alloca i32, align 4
  %i = alloca i32, align 4
  store ptr %this, ptr %this.addr, align 8
  %this1 = load ptr, ptr %this.addr, align 8
  %call = call noundef i32 @_ZNK2lp10hnf_cutter11terms_countEv(ptr noundef nonnull align 8 dereferenceable(208) %this1)
  call void @_ZNK2lp10hnf_cutter4varsEv(ptr sret(%class.svector) align 8 %ref.tmp2, ptr noundef nonnull align 8 dereferenceable(208) %this1)
  %call3 = invoke noundef i32 @_ZNK6vectorIjLb0EjE4sizeEv(ptr noundef nonnull align 8 dereferenceable(8) %ref.tmp2)
          to label %invoke.cont unwind label %lpad

invoke.cont:                                      ; preds = %entry
  invoke void @_ZN2lp14general_matrixC2Ejj(ptr noundef nonnull align 8 dereferenceable(40) %ref.tmp, i32 noundef %call, i32 noundef %call3)
          to label %invoke.cont4 unwind label %lpad

invoke.cont4:                                     ; preds = %invoke.cont
  %m_A = getelementptr inbounds %"class.lp::hnf_cutter", ptr %this1, i32 0, i32 3
  %call5 = call noundef nonnull align 8 dereferenceable(40) ptr @_ZN2lp14general_matrixaSEOS0_(ptr noundef nonnull align 8 dereferenceable(40) %m_A, ptr noundef nonnull align 8 dereferenceable(40) %ref.tmp) #3
  call void @_ZN2lp14general_matrixD2Ev(ptr noundef nonnull align 8 dereferenceable(40) %ref.tmp) #3
  call void @_ZN7svectorIjjED2Ev(ptr noundef nonnull align 8 dereferenceable(8) %ref.tmp2) #3
  store i32 0, ptr %i, align 4
  br label %for.cond

for.cond:                                         ; preds = %for.inc, %invoke.cont4
  %0 = load i32, ptr %i, align 4
  %call6 = call noundef i32 @_ZNK2lp10hnf_cutter11terms_countEv(ptr noundef nonnull align 8 dereferenceable(208) %this1)
  %cmp = icmp ult i32 %0, %call6
  br i1 %cmp, label %for.body, label %for.end

for.body:                                         ; preds = %for.cond
  %1 = load i32, ptr %i, align 4
  call void @_ZN2lp10hnf_cutter14initialize_rowEj(ptr noundef nonnull align 8 dereferenceable(208) %this1, i32 noundef %1)
  br label %for.inc

for.inc:                                          ; preds = %for.body
  %2 = load i32, ptr %i, align 4
  %inc = add i32 %2, 1
  store i32 %inc, ptr %i, align 4
  br label %for.cond, !llvm.loop !4

lpad:                                             ; preds = %invoke.cont, %entry
  %3 = landingpad { ptr, i32 }
          cleanup
  %4 = extractvalue { ptr, i32 } %3, 0
  store ptr %4, ptr %exn.slot, align 8
  %5 = extractvalue { ptr, i32 } %3, 1
  store i32 %5, ptr %ehselector.slot, align 4
  call void @_ZN7svectorIjjED2Ev(ptr noundef nonnull align 8 dereferenceable(8) %ref.tmp2) #3
  br label %eh.resume

for.end:                                          ; preds = %for.cond
  ret void

eh.resume:                                        ; preds = %lpad
  %exn = load ptr, ptr %exn.slot, align 8
  %sel = load i32, ptr %ehselector.slot, align 4
  %lpad.val = insertvalue { ptr, i32 } poison, ptr %exn, 0
  %lpad.val7 = insertvalue { ptr, i32 } %lpad.val, i32 %sel, 1
  resume { ptr, i32 } %lpad.val7
}