; Function Attrs: mustprogress uwtable
define hidden void @_ZN2lp10hnf_cutter13init_matrix_AEv(ptr noundef nonnull align 8 dereferenceable(208) %this) local_unnamed_addr #3 align 2 personality ptr @__gxx_personality_v0 {
entry:
  %ref.tmp = alloca %"class.lp::general_matrix", align 8
  %ref.tmp2 = alloca %class.svector, align 8
  %m_terms.i = getelementptr inbounds i8, ptr %this, i64 64
  %0 = load ptr, ptr %m_terms.i, align 8
  %cmp.i.i = icmp eq ptr %0, null
  br i1 %cmp.i.i, label %_ZNK2lp10hnf_cutter11terms_countEv.exit, label %if.end.i.i

if.end.i.i:                                       ; preds = %entry
  %arrayidx.i.i = getelementptr inbounds i8, ptr %0, i64 -4
  %1 = load i32, ptr %arrayidx.i.i, align 4
  br label %_ZNK2lp10hnf_cutter11terms_countEv.exit

_ZNK2lp10hnf_cutter11terms_countEv.exit:          ; preds = %entry, %if.end.i.i
  %retval.0.i.i = phi i32 [ %1, %if.end.i.i ], [ 0, %entry ]
  tail call void @llvm.experimental.noalias.scope.decl(metadata !36)
  %m_var_register.i = getelementptr inbounds i8, ptr %this, i64 136
  tail call void @llvm.experimental.noalias.scope.decl(metadata !39)
  store ptr null, ptr %ref.tmp2, align 8, !alias.scope !42
  %2 = load ptr, ptr %m_var_register.i, align 8, !noalias !42
  %cmp.i.i.i.i = icmp eq ptr %2, null
  br i1 %cmp.i.i.i.i, label %_ZNK6vectorIjLb0EjE4sizeEv.exit, label %_ZNK6vectorIN2lp12ext_var_infoELb1EjE3endEv.exit.i.i

_ZNK6vectorIN2lp12ext_var_infoELb1EjE3endEv.exit.i.i: ; preds = %_ZNK2lp10hnf_cutter11terms_countEv.exit
  %arrayidx.i.i.i.i = getelementptr inbounds i8, ptr %2, i64 -4
  %3 = load i32, ptr %arrayidx.i.i.i.i, align 4, !noalias !42
  %4 = zext i32 %3 to i64
  %add.ptr.i.i.i = getelementptr inbounds %"class.lp::ext_var_info", ptr %2, i64 %4
  %cmp.not5.i.i = icmp eq i32 %3, 0
  br i1 %cmp.not5.i.i, label %_ZNK6vectorIjLb0EjE4sizeEv.exit, label %for.body.i.i

for.body.i.i:                                     ; preds = %_ZNK6vectorIN2lp12ext_var_infoELb1EjE3endEv.exit.i.i, %for.inc.i.i
  %__begin2.06.i.i = phi ptr [ %incdec.ptr.i.i, %for.inc.i.i ], [ %2, %_ZNK6vectorIN2lp12ext_var_infoELb1EjE3endEv.exit.i.i ]
  %5 = load i32, ptr %__begin2.06.i.i, align 8
  %6 = load ptr, ptr %ref.tmp2, align 8, !alias.scope !42
  %cmp.i.i.i = icmp eq ptr %6, null
  br i1 %cmp.i.i.i, label %if.then.i.i.i, label %lor.lhs.false.i.i.i

lor.lhs.false.i.i.i:                              ; preds = %for.body.i.i
  %arrayidx.i.i.i = getelementptr inbounds i8, ptr %6, i64 -4
  %7 = load i32, ptr %arrayidx.i.i.i, align 4
  %arrayidx4.i.i.i = getelementptr inbounds i8, ptr %6, i64 -8
  %8 = load i32, ptr %arrayidx4.i.i.i, align 4
  %cmp5.i.i.i = icmp eq i32 %7, %8
  br i1 %cmp5.i.i.i, label %if.then.i.i.i, label %for.inc.i.i

if.then.i.i.i:                                    ; preds = %lor.lhs.false.i.i.i, %for.body.i.i
  invoke void @_ZN6vectorIjLb0EjE13expand_vectorEv(ptr noundef nonnull align 8 dereferenceable(8) %ref.tmp2)
          to label %.noexc.i.i unwind label %lpad.i.i

.noexc.i.i:                                       ; preds = %if.then.i.i.i
  %.pre.i.i.i = load ptr, ptr %ref.tmp2, align 8, !alias.scope !42
  %arrayidx8.phi.trans.insert.i.i.i = getelementptr inbounds i8, ptr %.pre.i.i.i, i64 -4
  %.pre1.i.i.i = load i32, ptr %arrayidx8.phi.trans.insert.i.i.i, align 4
  br label %for.inc.i.i

for.inc.i.i:                                      ; preds = %.noexc.i.i, %lor.lhs.false.i.i.i
  %9 = phi i32 [ %.pre1.i.i.i, %.noexc.i.i ], [ %7, %lor.lhs.false.i.i.i ]
  %10 = phi ptr [ %.pre.i.i.i, %.noexc.i.i ], [ %6, %lor.lhs.false.i.i.i ]
  %idx.ext.i.i.i = zext i32 %9 to i64
  %add.ptr.i4.i.i = getelementptr inbounds i32, ptr %10, i64 %idx.ext.i.i.i
  store i32 %5, ptr %add.ptr.i4.i.i, align 4
  %11 = load ptr, ptr %ref.tmp2, align 8, !alias.scope !42
  %arrayidx10.i.i.i = getelementptr inbounds i8, ptr %11, i64 -4
  %12 = load i32, ptr %arrayidx10.i.i.i, align 4
  %inc.i.i.i = add i32 %12, 1
  store i32 %inc.i.i.i, ptr %arrayidx10.i.i.i, align 4
  %incdec.ptr.i.i = getelementptr inbounds i8, ptr %__begin2.06.i.i, i64 40
  %cmp.not.i.i = icmp eq ptr %incdec.ptr.i.i, %add.ptr.i.i.i
  br i1 %cmp.not.i.i, label %_ZNK2lp10hnf_cutter4varsEv.exit, label %for.body.i.i

common.resume:                                    ; preds = %lpad, %lpad.i.i
  %common.resume.op = phi { ptr, i32 } [ %13, %lpad.i.i ], [ %20, %lpad ]
  call void @_ZN7svectorIjjED2Ev(ptr noundef nonnull align 8 dereferenceable(8) %ref.tmp2) #20
  resume { ptr, i32 } %common.resume.op

lpad.i.i:                                         ; preds = %if.then.i.i.i
  %13 = landingpad { ptr, i32 }
          cleanup
  br label %common.resume

_ZNK2lp10hnf_cutter4varsEv.exit:                  ; preds = %for.inc.i.i
  %.pr.pre = load ptr, ptr %ref.tmp2, align 8
  %cmp.i = icmp eq ptr %.pr.pre, null
  br i1 %cmp.i, label %_ZNK6vectorIjLb0EjE4sizeEv.exit, label %if.end.i

if.end.i:                                         ; preds = %_ZNK2lp10hnf_cutter4varsEv.exit
  %arrayidx.i = getelementptr inbounds i8, ptr %.pr.pre, i64 -4
  %14 = load i32, ptr %arrayidx.i, align 4
  br label %_ZNK6vectorIjLb0EjE4sizeEv.exit

_ZNK6vectorIjLb0EjE4sizeEv.exit:                  ; preds = %_ZNK6vectorIN2lp12ext_var_infoELb1EjE3endEv.exit.i.i, %_ZNK2lp10hnf_cutter11terms_countEv.exit, %_ZNK2lp10hnf_cutter4varsEv.exit, %if.end.i
  %retval.0.i = phi i32 [ %14, %if.end.i ], [ 0, %_ZNK2lp10hnf_cutter4varsEv.exit ], [ 0, %_ZNK2lp10hnf_cutter11terms_countEv.exit ], [ 0, %_ZNK6vectorIN2lp12ext_var_infoELb1EjE3endEv.exit.i.i ]
  invoke void @_ZN2lp14general_matrixC2Ejj(ptr noundef nonnull align 8 dereferenceable(40) %ref.tmp, i32 noundef %retval.0.i.i, i32 noundef %retval.0.i)
          to label %invoke.cont4 unwind label %lpad

invoke.cont4:                                     ; preds = %_ZNK6vectorIjLb0EjE4sizeEv.exit
  %m_A = getelementptr inbounds i8, ptr %this, i64 24
  %call5 = call noundef nonnull align 8 dereferenceable(40) ptr @_ZN2lp14general_matrixaSEOS0_(ptr noundef nonnull align 8 dereferenceable(40) %m_A, ptr noundef nonnull align 8 dereferenceable(40) %ref.tmp) #20
  call void @_ZN2lp14general_matrixD2Ev(ptr noundef nonnull align 8 dereferenceable(40) %ref.tmp) #20
  %15 = load ptr, ptr %ref.tmp2, align 8
  %tobool.not.i.i.i = icmp eq ptr %15, null
  br i1 %tobool.not.i.i.i, label %for.cond.preheader, label %if.then.i.i.i3

if.then.i.i.i3:                                   ; preds = %invoke.cont4
  %add.ptr.i.i.i.i = getelementptr inbounds i8, ptr %15, i64 -8
  invoke void @_ZN6memory10deallocateEPv(ptr noundef nonnull %add.ptr.i.i.i.i)
          to label %for.cond.preheader unwind label %terminate.lpad.i.i

for.cond.preheader:                               ; preds = %invoke.cont4, %if.then.i.i.i3
  br label %for.cond

terminate.lpad.i.i:                               ; preds = %if.then.i.i.i3
  %16 = landingpad { ptr, i32 }
          catch ptr null
  %17 = extractvalue { ptr, i32 } %16, 0
  call void @__clang_call_terminate(ptr %17) #21
  unreachable

for.cond:                                         ; preds = %for.cond.preheader, %for.body
  %i.0 = phi i32 [ %inc, %for.body ], [ 0, %for.cond.preheader ]
  %18 = load ptr, ptr %m_terms.i, align 8
  %cmp.i.i5 = icmp eq ptr %18, null
  br i1 %cmp.i.i5, label %_ZNK2lp10hnf_cutter11terms_countEv.exit9, label %if.end.i.i6

if.end.i.i6:                                      ; preds = %for.cond
  %arrayidx.i.i7 = getelementptr inbounds i8, ptr %18, i64 -4
  %19 = load i32, ptr %arrayidx.i.i7, align 4
  br label %_ZNK2lp10hnf_cutter11terms_countEv.exit9

_ZNK2lp10hnf_cutter11terms_countEv.exit9:         ; preds = %for.cond, %if.end.i.i6
  %retval.0.i.i8 = phi i32 [ %19, %if.end.i.i6 ], [ 0, %for.cond ]
  %cmp = icmp ult i32 %i.0, %retval.0.i.i8
  br i1 %cmp, label %for.body, label %for.end

for.body:                                         ; preds = %_ZNK2lp10hnf_cutter11terms_countEv.exit9
  call void @_ZN2lp10hnf_cutter14initialize_rowEj(ptr noundef nonnull align 8 dereferenceable(208) %this, i32 noundef %i.0)
  %inc = add nuw i32 %i.0, 1
  br label %for.cond, !llvm.loop !43

lpad:                                             ; preds = %_ZNK6vectorIjLb0EjE4sizeEv.exit
  %20 = landingpad { ptr, i32 }
          cleanup
  br label %common.resume

for.end:                                          ; preds = %_ZNK2lp10hnf_cutter11terms_countEv.exit9
  ret void
}